; Function Attrs: mustprogress uwtable
define void @_ZN10open_spiel13cliff_walking17CliffWalkingStateC2ESt10shared_ptrIKNS_4GameEE(ptr noundef nonnull align 8 dereferenceable(84) %0, ptr noundef readonly captures(none) %1) unnamed_addr #3 align 2 personality ptr @__gxx_personality_v0 {
  %3 = alloca %"class.std::shared_ptr", align 8
  %4 = load ptr, ptr %1, align 8
  store ptr %4, ptr %3, align 8
  %5 = getelementptr inbounds nuw i8, ptr %3, i64 8
  %6 = getelementptr inbounds nuw i8, ptr %1, i64 8
  %7 = load ptr, ptr %6, align 8
  store ptr %7, ptr %5, align 8
  %.not.i.i.i = icmp eq ptr %7, null
  br i1 %.not.i.i.i, label %_ZNSt10shared_ptrIKN10open_spiel4GameEEC2ERKS3_.exit, label %8

8:                                                ; preds = %2
  %9 = getelementptr inbounds nuw i8, ptr %7, i64 8
  %10 = load i8, ptr @__libc_single_threaded, align 1
  %.not.i.i.i.i = icmp eq i8 %10, 0
  br i1 %.not.i.i.i.i, label %14, label %11

11:                                               ; preds = %8
  %12 = load i32, ptr %9, align 4
  %13 = add nsw i32 %12, 1
  store i32 %13, ptr %9, align 4
  br label %_ZNSt10shared_ptrIKN10open_spiel4GameEEC2ERKS3_.exit

14:                                               ; preds = %8
  %15 = atomicrmw volatile add ptr %9, i32 1 acq_rel, align 4
  br label %_ZNSt10shared_ptrIKN10open_spiel4GameEEC2ERKS3_.exit

_ZNSt10shared_ptrIKN10open_spiel4GameEEC2ERKS3_.exit: ; preds = %2, %11, %14
  invoke void @_ZN10open_spiel5StateC2ESt10shared_ptrIKNS_4GameEE(ptr noundef nonnull align 8 dereferenceable(60) %0, ptr noundef nonnull %3)
          to label %16 unwind label %70

16:                                               ; preds = %_ZNSt10shared_ptrIKN10open_spiel4GameEEC2ERKS3_.exit
  %17 = load ptr, ptr %5, align 8
  %.not.i.i.i8 = icmp eq ptr %17, null
  br i1 %.not.i.i.i8, label %_ZNSt10shared_ptrIKN10open_spiel4GameEED2Ev.exit, label %18

18:                                               ; preds = %16
  %19 = getelementptr inbounds nuw i8, ptr %17, i64 8
  %20 = load atomic i64, ptr %19 acquire, align 8
  %21 = icmp eq i64 %20, 4294967297
  %22 = trunc i64 %20 to i32
  br i1 %21, label %23, label %28

23:                                               ; preds = %18
  store i32 0, ptr %19, align 8
  %24 = getelementptr inbounds nuw i8, ptr %17, i64 12
  store i32 0, ptr %24, align 4
  %25 = load ptr, ptr %17, align 8
  %26 = getelementptr inbounds nuw i8, ptr %25, i64 16
  %27 = load ptr, ptr %26, align 8
  call void %27(ptr noundef nonnull align 8 dereferenceable(16) %17) #24
  br label %_ZNSt16_Sp_counted_baseILN9__gnu_cxx12_Lock_policyE2EE24_M_release_last_use_coldEv.exit.sink.split.i.i.i.i

28:                                               ; preds = %18
  %29 = load i8, ptr @__libc_single_threaded, align 1
  %.not.i.i.i.i9 = icmp eq i8 %29, 0
  br i1 %.not.i.i.i.i9, label %32, label %30

30:                                               ; preds = %28
  %31 = add nsw i32 %22, -1
  store i32 %31, ptr %19, align 4
  br label %34

32:                                               ; preds = %28
  %33 = atomicrmw volatile add ptr %19, i32 -1 acq_rel, align 4
  br label %34

34:                                               ; preds = %32, %30
  %.0.i.i.i.i = phi i32 [ %22, %30 ], [ %33, %32 ]
  %35 = icmp eq i32 %.0.i.i.i.i, 1
  br i1 %35, label %36, label %_ZNSt10shared_ptrIKN10open_spiel4GameEED2Ev.exit

36:                                               ; preds = %34
  %37 = load ptr, ptr %17, align 8
  %38 = getelementptr inbounds nuw i8, ptr %37, i64 16
  %39 = load ptr, ptr %38, align 8
  call void %39(ptr noundef nonnull align 8 dereferenceable(16) %17) #24
  %40 = getelementptr inbounds nuw i8, ptr %17, i64 12
  %41 = load i8, ptr @__libc_single_threaded, align 1
  %.not.i.i.i.i.i.i = icmp eq i8 %41, 0
  br i1 %.not.i.i.i.i.i.i, label %45, label %42

42:                                               ; preds = %36
  %43 = load i32, ptr %40, align 4
  %44 = add nsw i32 %43, -1
  store i32 %44, ptr %40, align 4
  br label %47

45:                                               ; preds = %36
  %46 = atomicrmw volatile add ptr %40, i32 -1 acq_rel, align 4
  br label %47

47:                                               ; preds = %45, %42
  %.0.i.i.i.i.i.i = phi i32 [ %43, %42 ], [ %46, %45 ]
  %48 = icmp eq i32 %.0.i.i.i.i.i.i, 1
  br i1 %48, label %_ZNSt16_Sp_counted_baseILN9__gnu_cxx12_Lock_policyE2EE24_M_release_last_use_coldEv.exit.sink.split.i.i.i.i, label %_ZNSt10shared_ptrIKN10open_spiel4GameEED2Ev.exit

_ZNSt16_Sp_counted_baseILN9__gnu_cxx12_Lock_policyE2EE24_M_release_last_use_coldEv.exit.sink.split.i.i.i.i: ; preds = %47, %23
  %49 = load ptr, ptr %17, align 8
  %50 = getelementptr inbounds nuw i8, ptr %49, i64 24
  %51 = load ptr, ptr %50, align 8
  call void %51(ptr noundef nonnull align 8 dereferenceable(16) %17) #24
  br label %_ZNSt10shared_ptrIKN10open_spiel4GameEED2Ev.exit

_ZNSt10shared_ptrIKN10open_spiel4GameEED2Ev.exit: ; preds = %16, %34, %47, %_ZNSt16_Sp_counted_baseILN9__gnu_cxx12_Lock_policyE2EE24_M_release_last_use_coldEv.exit.sink.split.i.i.i.i
  store ptr getelementptr inbounds nuw inrange(-16, 304) (i8, ptr @_ZTVN10open_spiel13cliff_walking17CliffWalkingStateE, i64 16), ptr %0, align 8
  %52 = getelementptr inbounds nuw i8, ptr %0, i64 76
  store i32 0, ptr %52, align 4
  %53 = getelementptr inbounds nuw i8, ptr %0, i64 80
  store i32 0, ptr %53, align 8
  %54 = load ptr, ptr %1, align 8
  %55 = getelementptr inbounds nuw i8, ptr %54, i64 280
  %56 = load i32, ptr %55, align 8
  %57 = getelementptr inbounds nuw i8, ptr %0, i64 60
  store i32 %56, ptr %57, align 4
  %58 = getelementptr inbounds nuw i8, ptr %54, i64 284
  %59 = load i32, ptr %58, align 4
  %60 = getelementptr inbounds nuw i8, ptr %0, i64 64
  store i32 %59, ptr %60, align 8
  %61 = load ptr, ptr %54, align 8
  %62 = getelementptr inbounds nuw i8, ptr %61, i64 136
  %63 = load ptr, ptr %62, align 8
  %64 = invoke noundef i32 %63(ptr noundef nonnull align 8 dereferenceable(292) %54)
          to label %65 unwind label %72

65:                                               ; preds = %_ZNSt10shared_ptrIKN10open_spiel4GameEED2Ev.exit
  %66 = getelementptr inbounds nuw i8, ptr %0, i64 68
  store i32 %64, ptr %66, align 4
  %67 = load i32, ptr %55, align 8
  %68 = add nsw i32 %67, -1
  %69 = getelementptr inbounds nuw i8, ptr %0, i64 72
  store i32 %68, ptr %69, align 8
  ret void

70:                                               ; preds = %_ZNSt10shared_ptrIKN10open_spiel4GameEEC2ERKS3_.exit
  %71 = landingpad { ptr, i32 }
          cleanup
  call void @_ZNSt10shared_ptrIKN10open_spiel4GameEED2Ev(ptr noundef nonnull align 8 dereferenceable(16) %3) #24
  br label %74

72:                                               ; preds = %_ZNSt10shared_ptrIKN10open_spiel4GameEED2Ev.exit
  %73 = landingpad { ptr, i32 }
          cleanup
  call void @_ZN10open_spiel5StateD2Ev(ptr noundef nonnull align 8 dereferenceable(60) %0) #24
  br label %74

74:                                               ; preds = %72, %70
  %.pn = phi { ptr, i32 } [ %73, %72 ], [ %71, %70 ]
  resume { ptr, i32 } %.pn
}